target datalayout = "e-m:e-p270:32:32-p271:32:32-p272:64:64-i64:64-i128:128-f80:128-n8:16:32:64-S128"
target triple = "x86_64-pc-linux-gnu"

%struct.AudioNLMDNDSPContext = type { ptr, ptr }
%struct.AVFilterContext = type { ptr, ptr, ptr, ptr, ptr, i32, ptr, ptr, i32, ptr, ptr, i32, i32, ptr, ptr, ptr, ptr, i32, ptr, i32, i32 }
%struct.AudioNLMeansContext = type { ptr, float, i64, i64, float, i32, float, [1048576 x float], i32, i32, i32, i32, ptr, ptr, ptr, %struct.AudioNLMDNDSPContext }
%struct.AVFilterLink = type { ptr, ptr, ptr, ptr, i32, i32, i32, i32, %struct.AVRational, i32, i32, i32, %struct.AVChannelLayout, %struct.AVRational, ptr, i32, %struct.AVFilterFormatsConfig, %struct.AVFilterFormatsConfig }
%struct.AVChannelLayout = type { i32, i32, %union.anon.1, ptr }
%union.anon.1 = type { i64 }
%struct.AVRational = type { i32, i32 }
%struct.AVFilterFormatsConfig = type { ptr, ptr, ptr, ptr, ptr }
%struct.AVFrame = type { [8 x ptr], [8 x i32], ptr, i32, i32, i32, i32, i32, %struct.AVRational, i64, i64, %struct.AVRational, i32, ptr, i32, i32, [8 x ptr], ptr, i32, ptr, i32, i32, i32, i32, i32, i32, i32, i64, ptr, i32, ptr, ptr, i64, i64, i64, i64, ptr, %struct.AVChannelLayout, i64 }

@.str.3 = private unnamed_addr constant [21 x i8] c"K:%d S:%d H:%d N:%d\0A\00", align 1

; Function Attrs: nounwind uwtable
define internal i32 @config_filter(ptr noundef %0) #0 {
  %2 = alloca i32, align 4
  %3 = alloca ptr, align 8
  %4 = alloca ptr, align 8
  %5 = alloca ptr, align 8
  %6 = alloca i32, align 4
  %7 = alloca i32, align 4
  %8 = alloca i32, align 4
  %9 = alloca i32, align 4
  %10 = alloca ptr, align 8
  %11 = alloca i32, align 4
  %12 = alloca ptr, align 8
  %13 = alloca i32, align 4
  %14 = alloca float, align 4
  store ptr %0, ptr %3, align 8, !tbaa !23
  call void @llvm.lifetime.start.p0(i64 8, ptr %4) #9
  %15 = load ptr, ptr %3, align 8, !tbaa !23
  %16 = getelementptr inbounds nuw %struct.AVFilterContext, ptr %15, i32 0, i32 9
  %17 = load ptr, ptr %16, align 8, !tbaa !25
  store ptr %17, ptr %4, align 8, !tbaa !37
  call void @llvm.lifetime.start.p0(i64 8, ptr %5) #9
  %18 = load ptr, ptr %3, align 8, !tbaa !23
  %19 = getelementptr inbounds nuw %struct.AVFilterContext, ptr %18, i32 0, i32 7
  %20 = load ptr, ptr %19, align 8, !tbaa !43
  %21 = getelementptr inbounds ptr, ptr %20, i64 0
  %22 = load ptr, ptr %21, align 8, !tbaa !41
  store ptr %22, ptr %5, align 8, !tbaa !41
  call void @llvm.lifetime.start.p0(i64 4, ptr %6) #9
  call void @llvm.lifetime.start.p0(i64 4, ptr %7) #9
  call void @llvm.lifetime.start.p0(i64 4, ptr %8) #9
  call void @llvm.lifetime.start.p0(i64 4, ptr %9) #9
  %23 = load ptr, ptr %4, align 8, !tbaa !37
  %24 = getelementptr inbounds nuw %struct.AudioNLMeansContext, ptr %23, i32 0, i32 2
  %25 = load i64, ptr %24, align 8, !tbaa !56
  %26 = load ptr, ptr %5, align 8, !tbaa !41
  %27 = getelementptr inbounds nuw %struct.AVFilterLink, ptr %26, i32 0, i32 11
  %28 = load i32, ptr %27, align 8, !tbaa !57
  %29 = sext i32 %28 to i64
  %30 = call i64 @av_rescale(i64 noundef %25, i64 noundef %29, i64 noundef 1000000) #10
  %31 = trunc i64 %30 to i32
  store i32 %31, ptr %6, align 4, !tbaa !18
  %32 = load ptr, ptr %4, align 8, !tbaa !37
  %33 = getelementptr inbounds nuw %struct.AudioNLMeansContext, ptr %32, i32 0, i32 3
  %34 = load i64, ptr %33, align 8, !tbaa !58
  %35 = load ptr, ptr %5, align 8, !tbaa !41
  %36 = getelementptr inbounds nuw %struct.AVFilterLink, ptr %35, i32 0, i32 11
  %37 = load i32, ptr %36, align 8, !tbaa !57
  %38 = sext i32 %37 to i64
  %39 = call i64 @av_rescale(i64 noundef %34, i64 noundef %38, i64 noundef 1000000) #10
  %40 = trunc i64 %39 to i32
  store i32 %40, ptr %7, align 4, !tbaa !18
  %41 = load i32, ptr %6, align 4, !tbaa !18
  %42 = mul nsw i32 %41, 2
  %43 = add nsw i32 %42, 1
  store i32 %43, ptr %8, align 4, !tbaa !18
  %44 = load i32, ptr %8, align 4, !tbaa !18
  %45 = load i32, ptr %6, align 4, !tbaa !18
  %46 = load i32, ptr %7, align 4, !tbaa !18
  %47 = add nsw i32 %45, %46
  %48 = mul nsw i32 %47, 2
  %49 = add nsw i32 %44, %48
  store i32 %49, ptr %9, align 4, !tbaa !18
  %50 = load ptr, ptr %3, align 8, !tbaa !23
  %51 = load i32, ptr %6, align 4, !tbaa !18
  %52 = load i32, ptr %7, align 4, !tbaa !18
  %53 = load i32, ptr %8, align 4, !tbaa !18
  %54 = load i32, ptr %9, align 4, !tbaa !18
  call void (ptr, i32, ptr, ...) @av_log(ptr noundef %50, i32 noundef 48, ptr noundef @.str.3, i32 noundef %51, i32 noundef %52, i32 noundef %53, i32 noundef %54)
  %55 = load ptr, ptr %4, align 8, !tbaa !37
  %56 = getelementptr inbounds nuw %struct.AudioNLMeansContext, ptr %55, i32 0, i32 13
  %57 = load ptr, ptr %56, align 8, !tbaa !59
  %58 = icmp ne ptr %57, null
  br i1 %58, label %59, label %68

59:                                               ; preds = %1
  %60 = load ptr, ptr %4, align 8, !tbaa !37
  %61 = getelementptr inbounds nuw %struct.AudioNLMeansContext, ptr %60, i32 0, i32 13
  %62 = load ptr, ptr %61, align 8, !tbaa !59
  %63 = getelementptr inbounds nuw %struct.AVFrame, ptr %62, i32 0, i32 5
  %64 = load i32, ptr %63, align 8, !tbaa !60
  %65 = load i32, ptr %7, align 4, !tbaa !18
  %66 = mul nsw i32 %65, 2
  %67 = icmp slt i32 %64, %66
  br i1 %67, label %68, label %113

68:                                               ; preds = %59, %1
  call void @llvm.lifetime.start.p0(i64 8, ptr %10) #9
  %69 = load ptr, ptr %5, align 8, !tbaa !41
  %70 = load i32, ptr %7, align 4, !tbaa !18
  %71 = mul nsw i32 %70, 2
  %72 = call ptr @ff_get_audio_buffer(ptr noundef %69, i32 noundef %71)
  store ptr %72, ptr %10, align 8, !tbaa !44
  %73 = load ptr, ptr %10, align 8, !tbaa !44
  %74 = icmp ne ptr %73, null
  br i1 %74, label %75, label %108

75:                                               ; preds = %68
  %76 = load ptr, ptr %4, align 8, !tbaa !37
  %77 = getelementptr inbounds nuw %struct.AudioNLMeansContext, ptr %76, i32 0, i32 13
  %78 = load ptr, ptr %77, align 8, !tbaa !59
  %79 = icmp ne ptr %78, null
  br i1 %79, label %80, label %102

80:                                               ; preds = %75
  %81 = load ptr, ptr %10, align 8, !tbaa !44
  %82 = getelementptr inbounds nuw %struct.AVFrame, ptr %81, i32 0, i32 2
  %83 = load ptr, ptr %82, align 8, !tbaa !65
  %84 = load ptr, ptr %4, align 8, !tbaa !37
  %85 = getelementptr inbounds nuw %struct.AudioNLMeansContext, ptr %84, i32 0, i32 13
  %86 = load ptr, ptr %85, align 8, !tbaa !59
  %87 = getelementptr inbounds nuw %struct.AVFrame, ptr %86, i32 0, i32 2
  %88 = load ptr, ptr %87, align 8, !tbaa !65
  %89 = load ptr, ptr %4, align 8, !tbaa !37
  %90 = getelementptr inbounds nuw %struct.AudioNLMeansContext, ptr %89, i32 0, i32 13
  %91 = load ptr, ptr %90, align 8, !tbaa !59
  %92 = getelementptr inbounds nuw %struct.AVFrame, ptr %91, i32 0, i32 5
  %93 = load i32, ptr %92, align 8, !tbaa !60
  %94 = load ptr, ptr %10, align 8, !tbaa !44
  %95 = getelementptr inbounds nuw %struct.AVFrame, ptr %94, i32 0, i32 37
  %96 = getelementptr inbounds nuw %struct.AVChannelLayout, ptr %95, i32 0, i32 1
  %97 = load i32, ptr %96, align 4, !tbaa !66
  %98 = load ptr, ptr %10, align 8, !tbaa !44
  %99 = getelementptr inbounds nuw %struct.AVFrame, ptr %98, i32 0, i32 6
  %100 = load i32, ptr %99, align 4, !tbaa !67
  %101 = call i32 @av_samples_copy(ptr noundef %83, ptr noundef %88, i32 noundef 0, i32 noundef 0, i32 noundef %93, i32 noundef %97, i32 noundef %100)
  br label %102

102:                                              ; preds = %80, %75
  %103 = load ptr, ptr %4, align 8, !tbaa !37
  %104 = getelementptr inbounds nuw %struct.AudioNLMeansContext, ptr %103, i32 0, i32 13
  call void @av_frame_free(ptr noundef %104)
  %105 = load ptr, ptr %10, align 8, !tbaa !44
  %106 = load ptr, ptr %4, align 8, !tbaa !37
  %107 = getelementptr inbounds nuw %struct.AudioNLMeansContext, ptr %106, i32 0, i32 13
  store ptr %105, ptr %107, align 8, !tbaa !59
  br label %109

108:                                              ; preds = %68
  store i32 -12, ptr %2, align 4
  store i32 1, ptr %11, align 4
  br label %110

109:                                              ; preds = %102
  store i32 0, ptr %11, align 4
  br label %110

110:                                              ; preds = %109, %108
  call void @llvm.lifetime.end.p0(i64 8, ptr %10) #9
  %111 = load i32, ptr %11, align 4
  switch i32 %111, label %225 [
    i32 0, label %112
  ]

112:                                              ; preds = %110
  br label %113

113:                                              ; preds = %112, %59
  %114 = load ptr, ptr %4, align 8, !tbaa !37
  %115 = getelementptr inbounds nuw %struct.AudioNLMeansContext, ptr %114, i32 0, i32 13
  %116 = load ptr, ptr %115, align 8, !tbaa !59
  %117 = icmp ne ptr %116, null
  br i1 %117, label %119, label %118

118:                                              ; preds = %113
  store i32 -12, ptr %2, align 4
  store i32 1, ptr %11, align 4
  br label %225

119:                                              ; preds = %113
  %120 = load ptr, ptr %4, align 8, !tbaa !37
  %121 = getelementptr inbounds nuw %struct.AudioNLMeansContext, ptr %120, i32 0, i32 14
  %122 = load ptr, ptr %121, align 8, !tbaa !68
  %123 = icmp ne ptr %122, null
  br i1 %123, label %124, label %132

124:                                              ; preds = %119
  %125 = load ptr, ptr %4, align 8, !tbaa !37
  %126 = getelementptr inbounds nuw %struct.AudioNLMeansContext, ptr %125, i32 0, i32 14
  %127 = load ptr, ptr %126, align 8, !tbaa !68
  %128 = getelementptr inbounds nuw %struct.AVFrame, ptr %127, i32 0, i32 5
  %129 = load i32, ptr %128, align 8, !tbaa !60
  %130 = load i32, ptr %9, align 4, !tbaa !18
  %131 = icmp slt i32 %129, %130
  br i1 %131, label %132, label %176

132:                                              ; preds = %124, %119
  call void @llvm.lifetime.start.p0(i64 8, ptr %12) #9
  %133 = load ptr, ptr %5, align 8, !tbaa !41
  %134 = load i32, ptr %9, align 4, !tbaa !18
  %135 = call ptr @ff_get_audio_buffer(ptr noundef %133, i32 noundef %134)
  store ptr %135, ptr %12, align 8, !tbaa !44
  %136 = load ptr, ptr %12, align 8, !tbaa !44
  %137 = icmp ne ptr %136, null
  br i1 %137, label %138, label %171

138:                                              ; preds = %132
  %139 = load ptr, ptr %4, align 8, !tbaa !37
  %140 = getelementptr inbounds nuw %struct.AudioNLMeansContext, ptr %139, i32 0, i32 14
  %141 = load ptr, ptr %140, align 8, !tbaa !68
  %142 = icmp ne ptr %141, null
  br i1 %142, label %143, label %165

143:                                              ; preds = %138
  %144 = load ptr, ptr %12, align 8, !tbaa !44
  %145 = getelementptr inbounds nuw %struct.AVFrame, ptr %144, i32 0, i32 2
  %146 = load ptr, ptr %145, align 8, !tbaa !65
  %147 = load ptr, ptr %4, align 8, !tbaa !37
  %148 = getelementptr inbounds nuw %struct.AudioNLMeansContext, ptr %147, i32 0, i32 14
  %149 = load ptr, ptr %148, align 8, !tbaa !68
  %150 = getelementptr inbounds nuw %struct.AVFrame, ptr %149, i32 0, i32 2
  %151 = load ptr, ptr %150, align 8, !tbaa !65
  %152 = load ptr, ptr %4, align 8, !tbaa !37
  %153 = getelementptr inbounds nuw %struct.AudioNLMeansContext, ptr %152, i32 0, i32 14
  %154 = load ptr, ptr %153, align 8, !tbaa !68
  %155 = getelementptr inbounds nuw %struct.AVFrame, ptr %154, i32 0, i32 5
  %156 = load i32, ptr %155, align 8, !tbaa !60
  %157 = load ptr, ptr %12, align 8, !tbaa !44
  %158 = getelementptr inbounds nuw %struct.AVFrame, ptr %157, i32 0, i32 37
  %159 = getelementptr inbounds nuw %struct.AVChannelLayout, ptr %158, i32 0, i32 1
  %160 = load i32, ptr %159, align 4, !tbaa !66
  %161 = load ptr, ptr %12, align 8, !tbaa !44
  %162 = getelementptr inbounds nuw %struct.AVFrame, ptr %161, i32 0, i32 6
  %163 = load i32, ptr %162, align 4, !tbaa !67
  %164 = call i32 @av_samples_copy(ptr noundef %146, ptr noundef %151, i32 noundef 0, i32 noundef 0, i32 noundef %156, i32 noundef %160, i32 noundef %163)
  br label %165

165:                                              ; preds = %143, %138
  %166 = load ptr, ptr %4, align 8, !tbaa !37
  %167 = getelementptr inbounds nuw %struct.AudioNLMeansContext, ptr %166, i32 0, i32 14
  call void @av_frame_free(ptr noundef %167)
  %168 = load ptr, ptr %12, align 8, !tbaa !44
  %169 = load ptr, ptr %4, align 8, !tbaa !37
  %170 = getelementptr inbounds nuw %struct.AudioNLMeansContext, ptr %169, i32 0, i32 14
  store ptr %168, ptr %170, align 8, !tbaa !68
  br label %172

171:                                              ; preds = %132
  store i32 -12, ptr %2, align 4
  store i32 1, ptr %11, align 4
  br label %173

172:                                              ; preds = %165
  store i32 0, ptr %11, align 4
  br label %173

173:                                              ; preds = %172, %171
  call void @llvm.lifetime.end.p0(i64 8, ptr %12) #9
  %174 = load i32, ptr %11, align 4
  switch i32 %174, label %225 [
    i32 0, label %175
  ]

175:                                              ; preds = %173
  br label %176

176:                                              ; preds = %175, %124
  %177 = load ptr, ptr %4, align 8, !tbaa !37
  %178 = getelementptr inbounds nuw %struct.AudioNLMeansContext, ptr %177, i32 0, i32 14
  %179 = load ptr, ptr %178, align 8, !tbaa !68
  %180 = icmp ne ptr %179, null
  br i1 %180, label %182, label %181

181:                                              ; preds = %176
  store i32 -12, ptr %2, align 4
  store i32 1, ptr %11, align 4
  br label %225

182:                                              ; preds = %176
  %183 = load ptr, ptr %4, align 8, !tbaa !37
  %184 = getelementptr inbounds nuw %struct.AudioNLMeansContext, ptr %183, i32 0, i32 4
  %185 = load float, ptr %184, align 8, !tbaa !69
  %186 = fdiv nsz float 1.000000e+00, %185
  %187 = fmul nsz float %186, 0x4130000000000000
  %188 = load ptr, ptr %4, align 8, !tbaa !37
  %189 = getelementptr inbounds nuw %struct.AudioNLMeansContext, ptr %188, i32 0, i32 6
  store float %187, ptr %189, align 8, !tbaa !70
  call void @llvm.lifetime.start.p0(i64 4, ptr %13) #9
  store i32 0, ptr %13, align 4, !tbaa !18
  br label %190

190:                                              ; preds = %209, %182
  %191 = load i32, ptr %13, align 4, !tbaa !18
  %192 = icmp slt i32 %191, 1048576
  br i1 %192, label %194, label %193

193:                                              ; preds = %190
  store i32 2, ptr %11, align 4
  call void @llvm.lifetime.end.p0(i64 4, ptr %13) #9
  br label %212

194:                                              ; preds = %190
  call void @llvm.lifetime.start.p0(i64 4, ptr %14) #9
  %195 = load i32, ptr %13, align 4, !tbaa !18
  %196 = sub nsw i32 0, %195
  %197 = sitofp i32 %196 to float
  %198 = load ptr, ptr %4, align 8, !tbaa !37
  %199 = getelementptr inbounds nuw %struct.AudioNLMeansContext, ptr %198, i32 0, i32 6
  %200 = load float, ptr %199, align 8, !tbaa !70
  %201 = fdiv nsz float %197, %200
  store float %201, ptr %14, align 4, !tbaa !16
  %202 = load float, ptr %14, align 4, !tbaa !16
  %203 = call nsz float @llvm.exp.f32(float %202)
  %204 = load ptr, ptr %4, align 8, !tbaa !37
  %205 = getelementptr inbounds nuw %struct.AudioNLMeansContext, ptr %204, i32 0, i32 7
  %206 = load i32, ptr %13, align 4, !tbaa !18
  %207 = sext i32 %206 to i64
  %208 = getelementptr inbounds [1048576 x float], ptr %205, i64 0, i64 %207
  store float %203, ptr %208, align 4, !tbaa !16
  call void @llvm.lifetime.end.p0(i64 4, ptr %14) #9
  br label %209

209:                                              ; preds = %194
  %210 = load i32, ptr %13, align 4, !tbaa !18
  %211 = add nsw i32 %210, 1
  store i32 %211, ptr %13, align 4, !tbaa !18
  br label %190, !llvm.loop !71

212:                                              ; preds = %193
  %213 = load i32, ptr %6, align 4, !tbaa !18
  %214 = load ptr, ptr %4, align 8, !tbaa !37
  %215 = getelementptr inbounds nuw %struct.AudioNLMeansContext, ptr %214, i32 0, i32 8
  store i32 %213, ptr %215, align 4, !tbaa !72
  %216 = load i32, ptr %7, align 4, !tbaa !18
  %217 = load ptr, ptr %4, align 8, !tbaa !37
  %218 = getelementptr inbounds nuw %struct.AudioNLMeansContext, ptr %217, i32 0, i32 9
  store i32 %216, ptr %218, align 8, !tbaa !73
  %219 = load i32, ptr %8, align 4, !tbaa !18
  %220 = load ptr, ptr %4, align 8, !tbaa !37
  %221 = getelementptr inbounds nuw %struct.AudioNLMeansContext, ptr %220, i32 0, i32 11
  store i32 %219, ptr %221, align 8, !tbaa !46
  %222 = load i32, ptr %9, align 4, !tbaa !18
  %223 = load ptr, ptr %4, align 8, !tbaa !37
  %224 = getelementptr inbounds nuw %struct.AudioNLMeansContext, ptr %223, i32 0, i32 10
  store i32 %222, ptr %224, align 4, !tbaa !74
  store i32 0, ptr %2, align 4
  store i32 1, ptr %11, align 4
  br label %225

225:                                              ; preds = %212, %181, %173, %118, %110
  call void @llvm.lifetime.end.p0(i64 4, ptr %9) #9
  call void @llvm.lifetime.end.p0(i64 4, ptr %8) #9
  call void @llvm.lifetime.end.p0(i64 4, ptr %7) #9
  call void @llvm.lifetime.end.p0(i64 4, ptr %6) #9
  call void @llvm.lifetime.end.p0(i64 8, ptr %5) #9
  call void @llvm.lifetime.end.p0(i64 8, ptr %4) #9
  %226 = load i32, ptr %2, align 4
  ret i32 %226
}