; Function Attrs: nounwind uwtable
define internal fastcc range(i32 -12, 1) i32 @config_filter(ptr noundef %0) unnamed_addr #4 {
  %2 = getelementptr inbounds nuw i8, ptr %0, i64 72
  %3 = load ptr, ptr %2, align 8, !tbaa !15
  %4 = getelementptr inbounds nuw i8, ptr %0, i64 56
  %5 = load ptr, ptr %4, align 8, !tbaa !31
  %6 = load ptr, ptr %5, align 8, !tbaa !29
  %7 = getelementptr inbounds nuw i8, ptr %3, i64 16
  %8 = load i64, ptr %7, align 8, !tbaa !57
  %9 = getelementptr inbounds nuw i8, ptr %6, i64 64
  %10 = load i32, ptr %9, align 8, !tbaa !58
  %11 = sext i32 %10 to i64
  %12 = tail call i64 @av_rescale(i64 noundef %8, i64 noundef %11, i64 noundef 1000000) #13
  %13 = trunc i64 %12 to i32
  %14 = getelementptr inbounds nuw i8, ptr %3, i64 24
  %15 = load i64, ptr %14, align 8, !tbaa !59
  %16 = tail call i64 @av_rescale(i64 noundef %15, i64 noundef %11, i64 noundef 1000000) #13
  %17 = trunc i64 %16 to i32
  %18 = shl nsw i32 %13, 1
  %19 = or disjoint i32 %18, 1
  %20 = add nsw i32 %17, %13
  %21 = shl nsw i32 %20, 1
  %22 = add nsw i32 %21, %19
  tail call void (ptr, i32, ptr, ...) @av_log(ptr noundef %0, i32 noundef 48, ptr noundef nonnull @.str.3, i32 noundef %13, i32 noundef %17, i32 noundef %19, i32 noundef %22) #12
  %23 = getelementptr inbounds nuw i8, ptr %3, i64 4194376
  %24 = load ptr, ptr %23, align 8, !tbaa !60
  %.not = icmp eq ptr %24, null
  br i1 %.not, label %._crit_edge, label %25

._crit_edge:                                      ; preds = %1
  %.pre = shl nsw i32 %17, 1
  br label %30

25:                                               ; preds = %1
  %26 = getelementptr inbounds nuw i8, ptr %24, i64 112
  %27 = load i32, ptr %26, align 8, !tbaa !46
  %28 = shl nsw i32 %17, 1
  %29 = icmp slt i32 %27, %28
  br i1 %29, label %30, label %46

30:                                               ; preds = %._crit_edge, %25
  %.pre-phi = phi i32 [ %.pre, %._crit_edge ], [ %28, %25 ]
  %31 = tail call ptr @ff_get_audio_buffer(ptr noundef nonnull %6, i32 noundef %.pre-phi) #12
  %.not75.not = icmp eq ptr %31, null
  br i1 %.not75.not, label %.critedge, label %32

32:                                               ; preds = %30
  %33 = load ptr, ptr %23, align 8, !tbaa !60
  %.not76 = icmp eq ptr %33, null
  br i1 %.not76, label %.thread, label %34

34:                                               ; preds = %32
  %35 = getelementptr inbounds nuw i8, ptr %31, i64 96
  %36 = load ptr, ptr %35, align 8, !tbaa !61
  %37 = getelementptr inbounds nuw i8, ptr %33, i64 96
  %38 = load ptr, ptr %37, align 8, !tbaa !61
  %39 = getelementptr inbounds nuw i8, ptr %33, i64 112
  %40 = load i32, ptr %39, align 8, !tbaa !46
  %41 = getelementptr inbounds nuw i8, ptr %31, i64 388
  %42 = load i32, ptr %41, align 4, !tbaa !62
  %43 = getelementptr inbounds nuw i8, ptr %31, i64 116
  %44 = load i32, ptr %43, align 4, !tbaa !63
  %45 = tail call i32 @av_samples_copy(ptr noundef %36, ptr noundef %38, i32 noundef 0, i32 noundef 0, i32 noundef %40, i32 noundef %42, i32 noundef %44) #12
  br label %.thread

.thread:                                          ; preds = %32, %34
  tail call void @av_frame_free(ptr noundef nonnull %23) #12
  store ptr %31, ptr %23, align 8, !tbaa !60
  br label %46

46:                                               ; preds = %25, %.thread
  %47 = getelementptr inbounds nuw i8, ptr %3, i64 4194384
  %48 = load ptr, ptr %47, align 8, !tbaa !64
  %.not78 = icmp eq ptr %48, null
  br i1 %.not78, label %53, label %49

49:                                               ; preds = %46
  %50 = getelementptr inbounds nuw i8, ptr %48, i64 112
  %51 = load i32, ptr %50, align 8, !tbaa !46
  %52 = icmp slt i32 %51, %22
  br i1 %52, label %53, label %69

53:                                               ; preds = %49, %46
  %54 = tail call ptr @ff_get_audio_buffer(ptr noundef nonnull %6, i32 noundef %22) #12
  %.not79.not = icmp eq ptr %54, null
  br i1 %.not79.not, label %.critedge, label %55

55:                                               ; preds = %53
  %56 = load ptr, ptr %47, align 8, !tbaa !64
  %.not80 = icmp eq ptr %56, null
  br i1 %.not80, label %.thread87, label %57

57:                                               ; preds = %55
  %58 = getelementptr inbounds nuw i8, ptr %54, i64 96
  %59 = load ptr, ptr %58, align 8, !tbaa !61
  %60 = getelementptr inbounds nuw i8, ptr %56, i64 96
  %61 = load ptr, ptr %60, align 8, !tbaa !61
  %62 = getelementptr inbounds nuw i8, ptr %56, i64 112
  %63 = load i32, ptr %62, align 8, !tbaa !46
  %64 = getelementptr inbounds nuw i8, ptr %54, i64 388
  %65 = load i32, ptr %64, align 4, !tbaa !62
  %66 = getelementptr inbounds nuw i8, ptr %54, i64 116
  %67 = load i32, ptr %66, align 4, !tbaa !63
  %68 = tail call i32 @av_samples_copy(ptr noundef %59, ptr noundef %61, i32 noundef 0, i32 noundef 0, i32 noundef %63, i32 noundef %65, i32 noundef %67) #12
  br label %.thread87

.thread87:                                        ; preds = %55, %57
  tail call void @av_frame_free(ptr noundef nonnull %47) #12
  store ptr %54, ptr %47, align 8, !tbaa !64
  br label %69

69:                                               ; preds = %49, %.thread87
  %70 = getelementptr inbounds nuw i8, ptr %3, i64 32
  %71 = load float, ptr %70, align 8, !tbaa !65
  %72 = fdiv nsz float 1.000000e+00, %71
  %73 = fmul nsz float %72, 0x4130000000000000
  %74 = getelementptr inbounds nuw i8, ptr %3, i64 40
  store float %73, ptr %74, align 8, !tbaa !66
  %75 = getelementptr inbounds nuw i8, ptr %3, i64 44
  br label %81

76:                                               ; preds = %81
  %77 = getelementptr inbounds nuw i8, ptr %3, i64 4194348
  store i32 %13, ptr %77, align 4, !tbaa !67
  %78 = getelementptr inbounds nuw i8, ptr %3, i64 4194352
  store i32 %17, ptr %78, align 8, !tbaa !68
  %79 = getelementptr inbounds nuw i8, ptr %3, i64 4194360
  store i32 %19, ptr %79, align 8, !tbaa !34
  %80 = getelementptr inbounds nuw i8, ptr %3, i64 4194356
  store i32 %22, ptr %80, align 4, !tbaa !69
  br label %.critedge

81:                                               ; preds = %69, %81
  %indvars.iv = phi i64 [ 0, %69 ], [ %indvars.iv.next, %81 ]
  %82 = trunc i64 %indvars.iv to i32
  %83 = sub i32 0, %82
  %84 = sitofp i32 %83 to float
  %85 = fdiv nsz float %84, %73
  %86 = tail call nsz float @llvm.exp.f32(float %85)
  %87 = getelementptr inbounds nuw [1048576 x float], ptr %75, i64 0, i64 %indvars.iv
  store float %86, ptr %87, align 4, !tbaa !10
  %indvars.iv.next = add nuw nsw i64 %indvars.iv, 1
  %exitcond.not = icmp eq i64 %indvars.iv.next, 1048576
  br i1 %exitcond.not, label %76, label %81, !llvm.loop !70

.critedge:                                        ; preds = %53, %30, %76
  %.2 = phi i32 [ 0, %76 ], [ -12, %30 ], [ -12, %53 ]
  ret i32 %.2
}